target datalayout = "e-m:e-p270:32:32-p271:32:32-p272:64:64-i64:64-i128:128-f80:128-n8:16:32:64-S128"
target triple = "x86_64-pc-linux-gnu"

@.str = private unnamed_addr constant [14 x i8] c"diameter.3gpp\00", align 1
@proto_diameter_3gpp = internal global i32 0, align 4
@.str.944 = private unnamed_addr constant [14 x i8] c"Diameter 3GPP\00", align 1
@.str.945 = private unnamed_addr constant [13 x i8] c"Diameter3GPP\00", align 1

; Function Attrs: nounwind uwtable
define hidden void @proto_register_diameter_3gpp() #0 {
  %1 = alloca ptr, align 8
  %2 = call i32 @proto_register_protocol(ptr noundef @.str.944, ptr noundef @.str.945, ptr noundef @.str)
  store i32 %2, ptr @proto_diameter_3gpp, align 4
  %3 = load i32, ptr @proto_diameter_3gpp, align 4
  call void @proto_register_field_array(i32 noundef %3, ptr noundef @proto_register_diameter_3gpp.hf, i32 noundef 503)
  call void @proto_register_subtree_array(ptr noundef @proto_register_diameter_3gpp.ett, i32 noundef 45)
  %4 = load i32, ptr @proto_diameter_3gpp, align 4
  %5 = call ptr @expert_register_protocol(i32 noundef %4)
  store ptr %5, ptr %1, align 8
  %6 = load ptr, ptr %1, align 8
  call void @expert_register_field_array(ptr noundef %6, ptr noundef @proto_register_diameter_3gpp.ei, i32 noundef 1)
  ret void
}