; Function Attrs: nounwind uwtable
define hidden void @proto_register_diameter_3gpp() local_unnamed_addr #0 {
  %1 = tail call i32 @proto_register_protocol(ptr noundef nonnull @.str.944, ptr noundef nonnull @.str.945, ptr noundef nonnull @.str) #3
  store i32 %1, ptr @proto_diameter_3gpp, align 4
  tail call void @proto_register_field_array(i32 noundef %1, ptr noundef nonnull @proto_register_diameter_3gpp.hf, i32 noundef 503) #3
  tail call void @proto_register_subtree_array(ptr noundef nonnull @proto_register_diameter_3gpp.ett, i32 noundef 45) #3
  %2 = load i32, ptr @proto_diameter_3gpp, align 4
  %3 = tail call ptr @expert_register_protocol(i32 noundef %2) #3
  tail call void @expert_register_field_array(ptr noundef %3, ptr noundef nonnull @proto_register_diameter_3gpp.ei, i32 noundef 1) #3
  ret void
}